; Function Attrs: mustprogress uwtable
define void @_ZN6google8protobuf28UninterpretedOption_NamePart5ClearEv(ptr noundef nonnull align 8 dereferenceable(40) %this) unnamed_addr #3 align 2 {
entry:
  %0 = getelementptr inbounds i8, ptr %this, i64 16
  %1 = load i32, ptr %0, align 8
  %and = and i32 %1, 1
  %tobool.not = icmp eq i32 %and, 0
  br i1 %tobool.not, label %if.end, label %if.then

if.then:                                          ; preds = %entry
  %name_part_ = getelementptr inbounds i8, ptr %this, i64 24
  %2 = load ptr, ptr %name_part_, align 8
  %3 = ptrtoint ptr %2 to i64
  %and.i.i = and i64 %3, -4
  %4 = inttoptr i64 %and.i.i to ptr
  tail call void @_ZNSt7__cxx1112basic_stringIcSt11char_traitsIcESaIcEE5clearEv(ptr noundef nonnull align 8 dereferenceable(32) %4) #22
  br label %if.end

if.end:                                           ; preds = %if.then, %entry
  %is_extension_ = getelementptr inbounds i8, ptr %this, i64 32
  store i8 0, ptr %is_extension_, align 8
  store i32 0, ptr %0, align 8
  %_internal_metadata_ = getelementptr inbounds i8, ptr %this, i64 8
  %5 = load i64, ptr %_internal_metadata_, align 8
  %and.i = and i64 %5, 1
  %tobool.i.not = icmp eq i64 %and.i, 0
  br i1 %tobool.i.not, label %_ZN6google8protobuf8internal16InternalMetadata5ClearINS0_15UnknownFieldSetEEEvv.exit, label %if.then.i

if.then.i:                                        ; preds = %if.end
  tail call void @_ZN6google8protobuf8internal16InternalMetadata7DoClearINS0_15UnknownFieldSetEEEvv(ptr noundef nonnull align 8 dereferenceable(8) %_internal_metadata_)
  br label %_ZN6google8protobuf8internal16InternalMetadata5ClearINS0_15UnknownFieldSetEEEvv.exit

_ZN6google8protobuf8internal16InternalMetadata5ClearINS0_15UnknownFieldSetEEEvv.exit: ; preds = %if.then.i, %if.end
  ret void
}